target datalayout = "e-m:e-p270:32:32-p271:32:32-p272:64:64-i64:64-i128:128-f80:128-n8:16:32:64-S128"
target triple = "x86_64-pc-linux-gnu"

@.str.50 = private unnamed_addr constant [1 x i8] zeroinitializer, align 1
@.str.161 = private unnamed_addr constant [15 x i8] c" little-endian\00", align 1
@.str.162 = private unnamed_addr constant [12 x i8] c" big-endian\00", align 1
@.str.163 = private unnamed_addr constant [14 x i8] c" mixed-endian\00", align 1
@.str.228 = private unnamed_addr constant [19 x i8] c"unknown-byte-order\00", align 1
@.str.229 = private unnamed_addr constant [19 x i8] c"%lu-bit%s bitfield\00", align 1

; Function Attrs: nounwind uwtable
define internal zeroext i1 @print_bitfield_type(ptr noundef %0, i64 noundef %1, i32 noundef %2) #0 {
  %4 = alloca i1, align 1
  %5 = alloca ptr, align 8
  %6 = alloca i64, align 8
  %7 = alloca i32, align 4
  %8 = alloca i32, align 4
  %9 = alloca ptr, align 8
  %10 = alloca i32, align 4
  store ptr %0, ptr %5, align 8, !tbaa !81
  store i64 %1, ptr %6, align 8, !tbaa !11
  store i32 %2, ptr %7, align 4, !tbaa !4
  call void @llvm.lifetime.start.p0(i64 4, ptr %8) #12
  call void @llvm.lifetime.start.p0(i64 8, ptr %9) #12
  store ptr null, ptr %9, align 8, !tbaa !13
  %11 = load i64, ptr %6, align 8, !tbaa !11
  %12 = call i32 @H5Tget_class(i64 noundef %11)
  %13 = icmp ne i32 4, %12
  br i1 %13, label %14, label %15

14:                                               ; preds = %3
  store i1 false, ptr %4, align 1
  store i32 1, ptr %10, align 4
  br label %48

15:                                               ; preds = %3
  %16 = load i64, ptr %6, align 8, !tbaa !11
  %17 = call i64 @H5Tget_size(i64 noundef %16)
  %18 = icmp ugt i64 %17, 1
  br i1 %18, label %19, label %37

19:                                               ; preds = %15
  %20 = load i64, ptr %6, align 8, !tbaa !11
  %21 = call i32 @H5Tget_order(i64 noundef %20)
  store i32 %21, ptr %8, align 4, !tbaa !4
  %22 = load i32, ptr %8, align 4, !tbaa !4
  %23 = icmp eq i32 0, %22
  br i1 %23, label %24, label %25

24:                                               ; preds = %19
  store ptr @.str.161, ptr %9, align 8, !tbaa !13
  br label %36

25:                                               ; preds = %19
  %26 = load i32, ptr %8, align 4, !tbaa !4
  %27 = icmp eq i32 1, %26
  br i1 %27, label %28, label %29

28:                                               ; preds = %25
  store ptr @.str.162, ptr %9, align 8, !tbaa !13
  br label %35

29:                                               ; preds = %25
  %30 = load i32, ptr %8, align 4, !tbaa !4
  %31 = icmp eq i32 2, %30
  br i1 %31, label %32, label %33

32:                                               ; preds = %29
  store ptr @.str.163, ptr %9, align 8, !tbaa !13
  br label %34

33:                                               ; preds = %29
  store ptr @.str.228, ptr %9, align 8, !tbaa !13
  br label %34

34:                                               ; preds = %33, %32
  br label %35

35:                                               ; preds = %34, %28
  br label %36

36:                                               ; preds = %35, %24
  br label %38

37:                                               ; preds = %15
  store ptr @.str.50, ptr %9, align 8, !tbaa !13
  br label %38

38:                                               ; preds = %37, %36
  %39 = load ptr, ptr %5, align 8, !tbaa !81
  %40 = load i64, ptr %6, align 8, !tbaa !11
  %41 = call i64 @H5Tget_size(i64 noundef %40)
  %42 = mul i64 8, %41
  %43 = load ptr, ptr %9, align 8, !tbaa !13
  %44 = call ptr (ptr, ptr, ...) @h5tools_str_append(ptr noundef %39, ptr noundef @.str.229, i64 noundef %42, ptr noundef %43)
  %45 = load ptr, ptr %5, align 8, !tbaa !81
  %46 = load i64, ptr %6, align 8, !tbaa !11
  %47 = load i32, ptr %7, align 4, !tbaa !4
  call void @print_precision(ptr noundef %45, i64 noundef %46, i32 noundef %47)
  store i1 true, ptr %4, align 1
  store i32 1, ptr %10, align 4
  br label %48

48:                                               ; preds = %38, %14
  call void @llvm.lifetime.end.p0(i64 8, ptr %9) #12
  call void @llvm.lifetime.end.p0(i64 4, ptr %8) #12
  %49 = load i1, ptr %4, align 1
  ret i1 %49
}